target datalayout = "e-m:e-p270:32:32-p271:32:32-p272:64:64-i64:64-i128:128-f80:128-n8:16:32:64-S128"
target triple = "x86_64-pc-linux-gnu"

%struct.MQTT = type { ptr, i64, i64, i8, i64, %struct.dynbuf, [4 x i8] }
%struct.dynbuf = type { ptr, i64, i64, i64 }
%struct.Curl_easy = type { i32, i64, i64, ptr, %struct.Curl_llist_node, %struct.Curl_llist_node, i32, i32, %struct.Curl_message, %struct.easy_pollset, %struct.Names, ptr, ptr, ptr, ptr, %struct.SingleRequest, %struct.UserDefined, ptr, ptr, ptr, %struct.Progress, %struct.UrlState, ptr, %struct.PureInfo, %struct.curl_tlssessioninfo }
%struct.Curl_llist_node = type { ptr, ptr, ptr, ptr }
%struct.Curl_message = type { %struct.Curl_llist_node, %struct.CURLMsg }
%struct.CURLMsg = type { i32, ptr, %union.anon }
%union.anon = type { ptr }
%struct.easy_pollset = type { [5 x i32], i32, [5 x i8] }
%struct.Names = type { ptr, i32 }
%struct.SingleRequest = type <{ i64, i64, i64, i64, %struct.curltime, i32, i32, i32, i32, i64, i32, i32, i8, i8, [2 x i8], i32, ptr, ptr, %struct.bufq, i64, i64, ptr, ptr, %union.anon.0, ptr, i8, i32, [3 x i8] }>
%struct.curltime = type { i64, i32 }
%struct.bufq = type { ptr, ptr, ptr, ptr, i64, i64, i64, i32 }
%union.anon.0 = type { ptr }
%struct.UserDefined = type <{ ptr, ptr, ptr, ptr, ptr, ptr, i64, i64, i64, ptr, ptr, i64, ptr, ptr, ptr, ptr, ptr, ptr, ptr, ptr, ptr, ptr, ptr, ptr, ptr, ptr, ptr, ptr, ptr, ptr, ptr, ptr, ptr, ptr, ptr, i64, i64, i64, i64, i64, i64, i64, i64, i64, ptr, ptr, %struct.curl_mimepart, ptr, ptr, ptr, i64, %struct.ssl_config_data, %struct.ssl_config_data, ptr, i16, i8, i8, %struct.ssl_general_config, i32, i32, i32, [4 x i8], ptr, ptr, i64, i32, i8, i8, i8, i8, ptr, ptr, ptr, i32, [4 x i8], [74 x ptr], [8 x ptr], i32, i32, i32, [4 x i8], ptr, i32, [4 x i8], ptr, ptr, ptr, ptr, ptr, i32, i32, i32, i32, i32, i32, i32, i32, i64, ptr, ptr, i64, ptr, i64, ptr, ptr, ptr, ptr, i32, i16, i16, i16, i8, i8, i8, i8, i8, i8, i8, i8, i64, [6 x i8] }>
%struct.curl_mimepart = type { ptr, ptr, i32, i32, ptr, ptr, ptr, ptr, ptr, ptr, ptr, ptr, ptr, ptr, ptr, i64, %struct.mime_state, ptr, %struct.mime_encoder_state, i64 }
%struct.mime_state = type { i32, ptr, i64 }
%struct.mime_encoder_state = type { i64, i64, i64, [256 x i8] }
%struct.ssl_config_data = type { %struct.ssl_primary_config, i64, ptr, ptr, ptr, ptr, ptr, ptr, ptr, i16 }
%struct.ssl_primary_config = type { ptr, ptr, ptr, ptr, ptr, ptr, ptr, ptr, ptr, ptr, ptr, ptr, ptr, ptr, i8, i32, i8, i8 }
%struct.ssl_general_config = type { i32 }
%struct.Progress = type { i64, %struct.pgrs_dir, %struct.pgrs_dir, i64, i64, i32, i32, i64, i64, i64, i64, i64, i64, i64, i64, i64, %struct.curltime, %struct.curltime, %struct.curltime, %struct.curltime, %struct.curltime, [6 x i64], [6 x %struct.curltime], i32, i8 }
%struct.pgrs_dir = type { i64, i64, i64, %struct.pgrs_measure }
%struct.pgrs_measure = type { %struct.curltime, i64 }
%struct.UrlState = type { %struct.curltime, i64, i64, %struct.dynbuf, ptr, i64, ptr, i32, i32, i32, ptr, i32, i64, i32, ptr, %struct.digestdata, %struct.digestdata, %struct.auth, %struct.auth, %struct.Curl_async, ptr, i8, %struct.curltime, %struct.Curl_tree, %struct.Curl_llist, [15 x %struct.time_node], ptr, ptr, i64, i64, i64, i64, [32 x i8], i64, ptr, ptr, ptr, %struct.urlpieces, ptr, ptr, ptr, ptr, ptr, i64, %struct.dynbuf, %struct.Curl_llist, [2 x %struct.curl_header], ptr, i32, ptr, ptr, %struct.store_netrc, %struct.dynamically_allocated_data, i8, i8, i8, i8, i32 }
%struct.digestdata = type { ptr, ptr, ptr, ptr, ptr, ptr, i32, i8, i8 }
%struct.auth = type { i64, i64, i64, i8 }
%struct.Curl_async = type { ptr, ptr, ptr, ptr, i32, i32, i8 }
%struct.Curl_tree = type { ptr, ptr, ptr, ptr, %struct.curltime, ptr }
%struct.time_node = type { %struct.Curl_llist_node, %struct.curltime, i32 }
%struct.urlpieces = type { ptr, ptr, ptr, ptr, ptr, ptr, ptr, ptr }
%struct.Curl_llist = type { ptr, ptr, ptr, i64 }
%struct.curl_header = type { ptr, ptr, i64, i64, i32, ptr }
%struct.store_netrc = type { %struct.dynbuf, ptr, i8 }
%struct.dynamically_allocated_data = type { ptr, ptr, ptr, ptr, ptr, ptr, ptr, ptr, ptr, ptr, ptr, ptr, ptr, ptr }
%struct.PureInfo = type { i32, i32, i32, i64, i64, i64, i64, i64, i64, i64, ptr, ptr, i64, i32, %struct.ip_quadruple, i32, ptr, i32, %struct.curl_certinfo, i32, i8 }
%struct.ip_quadruple = type { [46 x i8], [46 x i8], i32, i32 }
%struct.curl_certinfo = type { i32, ptr }
%struct.curl_tlssessioninfo = type { i32, ptr }

@Curl_cfree = external global ptr, align 8
@.str.14 = private unnamed_addr constant [3 x i8] c"\E0\00\00", align 1

; Function Attrs: nounwind uwtable
define internal i32 @mqtt_send(ptr noundef %0, ptr noundef %1, i64 noundef %2) #0 {
  %4 = alloca i32, align 4
  %5 = alloca ptr, align 8
  %6 = alloca ptr, align 8
  %7 = alloca i64, align 8
  %8 = alloca i32, align 4
  %9 = alloca ptr, align 8
  %10 = alloca i64, align 8
  %11 = alloca i32, align 4
  %12 = alloca i64, align 8
  %13 = alloca ptr, align 8
  store ptr %0, ptr %5, align 8, !tbaa !3
  store ptr %1, ptr %6, align 8, !tbaa !92
  store i64 %2, ptr %7, align 8, !tbaa !98
  call void @llvm.lifetime.start.p0(i64 4, ptr %8) #6
  store i32 0, ptr %8, align 4, !tbaa !16
  call void @llvm.lifetime.start.p0(i64 8, ptr %9) #6
  %14 = load ptr, ptr %5, align 8, !tbaa !3
  %15 = getelementptr inbounds nuw %struct.Curl_easy, ptr %14, i32 0, i32 15
  %16 = getelementptr inbounds nuw %struct.SingleRequest, ptr %15, i32 0, i32 23
  %17 = load ptr, ptr %16, align 8, !tbaa !13
  store ptr %17, ptr %9, align 8, !tbaa !11
  call void @llvm.lifetime.start.p0(i64 8, ptr %10) #6
  %18 = load ptr, ptr %5, align 8, !tbaa !3
  %19 = load ptr, ptr %6, align 8, !tbaa !92
  %20 = load i64, ptr %7, align 8, !tbaa !98
  %21 = call i32 @Curl_xfer_send(ptr noundef %18, ptr noundef %19, i64 noundef %20, i1 noundef zeroext false, ptr noundef %10)
  store i32 %21, ptr %8, align 4, !tbaa !16
  %22 = load i32, ptr %8, align 4, !tbaa !16
  %23 = icmp ne i32 %22, 0
  br i1 %23, label %24, label %26

24:                                               ; preds = %3
  %25 = load i32, ptr %8, align 4, !tbaa !16
  store i32 %25, ptr %4, align 4
  store i32 1, ptr %11, align 4
  br label %62

26:                                               ; preds = %3
  %27 = load ptr, ptr %5, align 8, !tbaa !3
  %28 = load ptr, ptr %6, align 8, !tbaa !92
  %29 = load i64, ptr %10, align 8, !tbaa !98
  call void @Curl_debug(ptr noundef %27, i32 noundef 2, ptr noundef %28, i64 noundef %29)
  %30 = load i64, ptr %7, align 8, !tbaa !98
  %31 = load i64, ptr %10, align 8, !tbaa !98
  %32 = icmp ne i64 %30, %31
  br i1 %32, label %33, label %55

33:                                               ; preds = %26
  call void @llvm.lifetime.start.p0(i64 8, ptr %12) #6
  %34 = load i64, ptr %7, align 8, !tbaa !98
  %35 = load i64, ptr %10, align 8, !tbaa !98
  %36 = sub i64 %34, %35
  store i64 %36, ptr %12, align 8, !tbaa !98
  call void @llvm.lifetime.start.p0(i64 8, ptr %13) #6
  %37 = load ptr, ptr %6, align 8, !tbaa !92
  %38 = load i64, ptr %10, align 8, !tbaa !98
  %39 = getelementptr inbounds nuw i8, ptr %37, i64 %38
  %40 = load i64, ptr %12, align 8, !tbaa !98
  %41 = call ptr @Curl_memdup(ptr noundef %39, i64 noundef %40)
  store ptr %41, ptr %13, align 8, !tbaa !92
  %42 = load ptr, ptr %13, align 8, !tbaa !92
  %43 = icmp ne ptr %42, null
  br i1 %43, label %45, label %44

44:                                               ; preds = %33
  store i32 27, ptr %4, align 4
  store i32 1, ptr %11, align 4
  br label %52

45:                                               ; preds = %33
  %46 = load ptr, ptr %13, align 8, !tbaa !92
  %47 = load ptr, ptr %9, align 8, !tbaa !11
  %48 = getelementptr inbounds nuw %struct.MQTT, ptr %47, i32 0, i32 0
  store ptr %46, ptr %48, align 8, !tbaa !20
  %49 = load i64, ptr %12, align 8, !tbaa !98
  %50 = load ptr, ptr %9, align 8, !tbaa !11
  %51 = getelementptr inbounds nuw %struct.MQTT, ptr %50, i32 0, i32 1
  store i64 %49, ptr %51, align 8, !tbaa !91
  store i32 0, ptr %11, align 4
  br label %52

52:                                               ; preds = %45, %44
  call void @llvm.lifetime.end.p0(i64 8, ptr %13) #6
  call void @llvm.lifetime.end.p0(i64 8, ptr %12) #6
  %53 = load i32, ptr %11, align 4
  switch i32 %53, label %62 [
    i32 0, label %54
  ]

54:                                               ; preds = %52
  br label %60

55:                                               ; preds = %26
  %56 = load ptr, ptr %9, align 8, !tbaa !11
  %57 = getelementptr inbounds nuw %struct.MQTT, ptr %56, i32 0, i32 0
  store ptr null, ptr %57, align 8, !tbaa !20
  %58 = load ptr, ptr %9, align 8, !tbaa !11
  %59 = getelementptr inbounds nuw %struct.MQTT, ptr %58, i32 0, i32 1
  store i64 0, ptr %59, align 8, !tbaa !91
  br label %60

60:                                               ; preds = %55, %54
  %61 = load i32, ptr %8, align 4, !tbaa !16
  store i32 %61, ptr %4, align 4
  store i32 1, ptr %11, align 4
  br label %62

62:                                               ; preds = %60, %52, %24
  call void @llvm.lifetime.end.p0(i64 8, ptr %10) #6
  call void @llvm.lifetime.end.p0(i64 8, ptr %9) #6
  call void @llvm.lifetime.end.p0(i64 4, ptr %8) #6
  %63 = load i32, ptr %4, align 4
  ret i32 %63
}

; Function Attrs: nounwind uwtable
define internal i32 @mqtt_disconnect(ptr noundef %0) #0 {
  %2 = alloca ptr, align 8
  %3 = alloca i32, align 4
  %4 = alloca ptr, align 8
  store ptr %0, ptr %2, align 8, !tbaa !3
  call void @llvm.lifetime.start.p0(i64 4, ptr %3) #6
  store i32 0, ptr %3, align 4, !tbaa !16
  call void @llvm.lifetime.start.p0(i64 8, ptr %4) #6
  %5 = load ptr, ptr %2, align 8, !tbaa !3
  %6 = getelementptr inbounds nuw %struct.Curl_easy, ptr %5, i32 0, i32 15
  %7 = getelementptr inbounds nuw %struct.SingleRequest, ptr %6, i32 0, i32 23
  %8 = load ptr, ptr %7, align 8, !tbaa !13
  store ptr %8, ptr %4, align 8, !tbaa !11
  %9 = load ptr, ptr %2, align 8, !tbaa !3
  %10 = call i32 @mqtt_send(ptr noundef %9, ptr noundef @.str.14, i64 noundef 2)
  store i32 %10, ptr %3, align 4, !tbaa !16
  br label %11

11:                                               ; preds = %1
  %12 = load ptr, ptr @Curl_cfree, align 8, !tbaa !10
  %13 = load ptr, ptr %4, align 8, !tbaa !11
  %14 = getelementptr inbounds nuw %struct.MQTT, ptr %13, i32 0, i32 0
  %15 = load ptr, ptr %14, align 8, !tbaa !20
  call void %12(ptr noundef %15)
  %16 = load ptr, ptr %4, align 8, !tbaa !11
  %17 = getelementptr inbounds nuw %struct.MQTT, ptr %16, i32 0, i32 0
  store ptr null, ptr %17, align 8, !tbaa !20
  br label %18

18:                                               ; preds = %11
  br label %19

19:                                               ; preds = %18
  %20 = load ptr, ptr %4, align 8, !tbaa !11
  %21 = getelementptr inbounds nuw %struct.MQTT, ptr %20, i32 0, i32 5
  call void @Curl_dyn_free(ptr noundef %21)
  %22 = load i32, ptr %3, align 4, !tbaa !16
  call void @llvm.lifetime.end.p0(i64 8, ptr %4) #6
  call void @llvm.lifetime.end.p0(i64 4, ptr %3) #6
  ret i32 %22
}