; Function Attrs: nounwind uwtable
define internal fastcc i32 @mqtt_disconnect(ptr noundef %0) unnamed_addr #0 {
  %2 = alloca i64, align 8
  %3 = getelementptr inbounds nuw i8, ptr %0, i64 440
  %4 = load ptr, ptr %3, align 8, !tbaa !7
  call void @llvm.lifetime.start.p0(i64 8, ptr nonnull %2) #8
  %5 = call i32 @Curl_xfer_send(ptr noundef %0, ptr noundef nonnull @.str.14, i64 noundef 2, i1 noundef zeroext false, ptr noundef nonnull %2) #8
  %.not.i = icmp eq i32 %5, 0
  br i1 %.not.i, label %6, label %mqtt_send.exit

6:                                                ; preds = %1
  %7 = load i64, ptr %2, align 8, !tbaa !85
  call void @Curl_debug(ptr noundef nonnull %0, i32 noundef 2, ptr noundef nonnull @.str.14, i64 noundef %7) #8
  %8 = load i64, ptr %2, align 8, !tbaa !85
  %.not26.i = icmp eq i64 %8, 2
  br i1 %.not26.i, label %15, label %9

9:                                                ; preds = %6
  %10 = sub i64 2, %8
  %11 = getelementptr inbounds nuw i8, ptr @.str.14, i64 %8
  %12 = call ptr @Curl_memdup(ptr noundef nonnull %11, i64 noundef %10) #8
  %.not27.not.i = icmp eq ptr %12, null
  br i1 %.not27.not.i, label %mqtt_send.exit, label %13

13:                                               ; preds = %9
  store ptr %12, ptr %4, align 8, !tbaa !86
  %14 = getelementptr inbounds nuw i8, ptr %4, i64 8
  store i64 %10, ptr %14, align 8, !tbaa !88
  br label %mqtt_send.exit

15:                                               ; preds = %6
  call void @llvm.memset.p0.i64(ptr noundef nonnull align 8 dereferenceable(16) %4, i8 0, i64 16, i1 false)
  br label %mqtt_send.exit

mqtt_send.exit:                                   ; preds = %1, %9, %13, %15
  %.0.i = phi i32 [ %5, %1 ], [ 27, %9 ], [ 0, %13 ], [ 0, %15 ]
  call void @llvm.lifetime.end.p0(i64 8, ptr nonnull %2) #8
  %16 = load ptr, ptr @Curl_cfree, align 8, !tbaa !3
  %17 = load ptr, ptr %4, align 8, !tbaa !86
  call void %16(ptr noundef %17) #8
  store ptr null, ptr %4, align 8, !tbaa !86
  %18 = getelementptr inbounds nuw i8, ptr %4, i64 40
  call void @Curl_dyn_free(ptr noundef nonnull %18) #8
  ret i32 %.0.i
}